; Function Attrs: mustprogress nofree norecurse nosync nounwind willreturn memory(argmem: readwrite) uwtable
define dso_local void @_ZN5clang11OMPChildren10setClausesEN4llvm8ArrayRefIPNS_9OMPClauseEEE(ptr nocapture noundef nonnull writeonly align 8 dereferenceable(16) %0, ptr nocapture readonly %1, i64 %2) local_unnamed_addr #1 align 2 {
  %.not.i.i.i.i.i.i = icmp eq i64 %2, 0
  br i1 %.not.i.i.i.i.i.i, label %_ZN4llvm4copyIRNS_8ArrayRefIPN5clang9OMPClauseEEEPS4_EET0_OT_S8_.exit, label %4

4:                                                ; preds = %3
  %.idx.i = shl nsw i64 %2, 3
  %5 = getelementptr inbounds i8, ptr %0, i64 16
  tail call void @llvm.memmove.p0.p0.i64(ptr nonnull align 8 %5, ptr align 8 %1, i64 %.idx.i, i1 false)
  br label %_ZN4llvm4copyIRNS_8ArrayRefIPN5clang9OMPClauseEEEPS4_EET0_OT_S8_.exit

_ZN4llvm4copyIRNS_8ArrayRefIPN5clang9OMPClauseEEEPS4_EET0_OT_S8_.exit: ; preds = %3, %4
  ret void
}